target datalayout = "e-m:e-p270:32:32-p271:32:32-p272:64:64-i64:64-i128:128-f80:128-n8:16:32:64-S128"
target triple = "x86_64-pc-linux-gnu"

%struct.expert_field = type { i32, i32 }

@hf_hdr_name_value = internal global i32 0, align 4
@ei_wsp_oversized_uintvar = internal global %struct.expert_field zeroinitializer, align 4
@ei_wsp_header_invalid_value = internal global %struct.expert_field zeroinitializer, align 4
@hf_hdr_content_encoding = internal global i32 0, align 4
@ett_content_encoding = internal global i32 0, align 4
@.str.876 = private unnamed_addr constant [5 x i8] c"gzip\00", align 1
@.str.877 = private unnamed_addr constant [9 x i8] c"compress\00", align 1
@.str.878 = private unnamed_addr constant [8 x i8] c"deflate\00", align 1
@.str.1074 = private unnamed_addr constant [17 x i8] c"Content Encoding\00", align 1

; Function Attrs: null_pointer_is_valid sspstrong uwtable
define internal i32 @wkh_content_encoding(ptr noundef %0, ptr noundef %1, i32 noundef %2, ptr noundef %3) #1 {
  %5 = alloca ptr, align 8
  %6 = alloca ptr, align 8
  %7 = alloca i32, align 4
  %8 = alloca ptr, align 8
  %9 = alloca i8, align 1
  %10 = alloca ptr, align 8
  %11 = alloca ptr, align 8
  %12 = alloca i32, align 4
  %13 = alloca i8, align 1
  %14 = alloca i32, align 4
  %15 = alloca i32, align 4
  %16 = alloca i32, align 4
  %17 = alloca ptr, align 8
  store ptr %0, ptr %5, align 8
  store ptr %1, ptr %6, align 8
  store i32 %2, ptr %7, align 4
  store ptr %3, ptr %8, align 8
  call void @llvm.lifetime.start.p0(i64 1, ptr %9) #8
  store i8 0, ptr %9, align 1
  call void @llvm.lifetime.start.p0(i64 8, ptr %10) #8
  call void @llvm.lifetime.start.p0(i64 8, ptr %11) #8
  call void @llvm.lifetime.start.p0(i64 4, ptr %12) #8
  %18 = load i32, ptr %7, align 4
  %19 = add i32 %18, 1
  store i32 %19, ptr %12, align 4
  call void @llvm.lifetime.start.p0(i64 1, ptr %13) #8
  %20 = load ptr, ptr %6, align 8
  %21 = load i32, ptr %12, align 4
  %22 = call zeroext i8 @tvb_get_uint8(ptr noundef %20, i32 noundef %21)
  store i8 %22, ptr %13, align 1
  call void @llvm.lifetime.start.p0(i64 4, ptr %14) #8
  %23 = load i32, ptr %12, align 4
  store i32 %23, ptr %14, align 4
  call void @llvm.lifetime.start.p0(i64 4, ptr %15) #8
  call void @llvm.lifetime.start.p0(i64 4, ptr %16) #8
  call void @llvm.lifetime.start.p0(i64 8, ptr %17) #8
  store ptr null, ptr %17, align 8
  %24 = load ptr, ptr %5, align 8
  %25 = load ptr, ptr %6, align 8
  %26 = load i32, ptr %7, align 4
  %27 = load i32, ptr %14, align 4
  %28 = load i32, ptr %7, align 4
  %29 = sub i32 %27, %28
  %30 = load i32, ptr @ett_content_encoding, align 4
  %31 = call ptr @proto_tree_add_subtree(ptr noundef %24, ptr noundef %25, i32 noundef %26, i32 noundef %29, i32 noundef %30, ptr noundef %11, ptr noundef @.str.1074)
  store ptr %31, ptr %10, align 8
  %32 = load ptr, ptr %10, align 8
  %33 = load i32, ptr @hf_hdr_name_value, align 4
  %34 = load ptr, ptr %6, align 8
  %35 = load i32, ptr %7, align 4
  %36 = call ptr @proto_tree_add_item(ptr noundef %32, i32 noundef %33, ptr noundef %34, i32 noundef %35, i32 noundef 1, i32 noundef 0)
  %37 = load i8, ptr %13, align 1
  %38 = zext i8 %37 to i32
  %39 = and i32 %38, 128
  %40 = icmp ne i32 %39, 0
  br i1 %40, label %41, label %74

41:                                               ; preds = %4
  %42 = load i32, ptr %14, align 4
  %43 = add i32 %42, 1
  store i32 %43, ptr %14, align 4
  %44 = load i8, ptr %13, align 1
  %45 = zext i8 %44 to i32
  switch i32 %45, label %73 [
    i32 128, label %46
    i32 129, label %55
    i32 130, label %64
  ]

46:                                               ; preds = %41
  %47 = load ptr, ptr %5, align 8
  %48 = load i32, ptr @hf_hdr_content_encoding, align 4
  %49 = load ptr, ptr %6, align 8
  %50 = load i32, ptr %7, align 4
  %51 = load i32, ptr %14, align 4
  %52 = load i32, ptr %7, align 4
  %53 = sub i32 %51, %52
  %54 = call ptr @proto_tree_add_string(ptr noundef %47, i32 noundef %48, ptr noundef %49, i32 noundef %50, i32 noundef %53, ptr noundef @.str.876)
  store i8 1, ptr %9, align 1
  br label %73

55:                                               ; preds = %41
  %56 = load ptr, ptr %5, align 8
  %57 = load i32, ptr @hf_hdr_content_encoding, align 4
  %58 = load ptr, ptr %6, align 8
  %59 = load i32, ptr %7, align 4
  %60 = load i32, ptr %14, align 4
  %61 = load i32, ptr %7, align 4
  %62 = sub i32 %60, %61
  %63 = call ptr @proto_tree_add_string(ptr noundef %56, i32 noundef %57, ptr noundef %58, i32 noundef %59, i32 noundef %62, ptr noundef @.str.877)
  store i8 1, ptr %9, align 1
  br label %73

64:                                               ; preds = %41
  %65 = load ptr, ptr %5, align 8
  %66 = load i32, ptr @hf_hdr_content_encoding, align 4
  %67 = load ptr, ptr %6, align 8
  %68 = load i32, ptr %7, align 4
  %69 = load i32, ptr %14, align 4
  %70 = load i32, ptr %7, align 4
  %71 = sub i32 %69, %70
  %72 = call ptr @proto_tree_add_string(ptr noundef %65, i32 noundef %66, ptr noundef %67, i32 noundef %68, i32 noundef %71, ptr noundef @.str.878)
  store i8 1, ptr %9, align 1
  br label %73

73:                                               ; preds = %41, %64, %55, %46
  br label %123

74:                                               ; preds = %4
  %75 = load i8, ptr %13, align 1
  %76 = zext i8 %75 to i32
  %77 = icmp eq i32 %76, 0
  br i1 %77, label %82, label %78

78:                                               ; preds = %74
  %79 = load i8, ptr %13, align 1
  %80 = zext i8 %79 to i32
  %81 = icmp sge i32 %80, 32
  br i1 %81, label %82, label %99

82:                                               ; preds = %78, %74
  %83 = call ptr @wmem_packet_scope()
  %84 = load ptr, ptr %6, align 8
  %85 = load i32, ptr %12, align 4
  %86 = call ptr @tvb_get_stringz_enc(ptr noundef %83, ptr noundef %84, i32 noundef %85, ptr noundef %15, i32 noundef 0)
  store ptr %86, ptr %17, align 8
  %87 = load i32, ptr %12, align 4
  %88 = load i32, ptr %15, align 4
  %89 = add i32 %87, %88
  store i32 %89, ptr %14, align 4
  %90 = load ptr, ptr %5, align 8
  %91 = load i32, ptr @hf_hdr_content_encoding, align 4
  %92 = load ptr, ptr %6, align 8
  %93 = load i32, ptr %7, align 4
  %94 = load i32, ptr %14, align 4
  %95 = load i32, ptr %7, align 4
  %96 = sub i32 %94, %95
  %97 = load ptr, ptr %17, align 8
  %98 = call ptr @proto_tree_add_string(ptr noundef %90, i32 noundef %91, ptr noundef %92, i32 noundef %93, i32 noundef %96, ptr noundef %97)
  store i8 1, ptr %9, align 1
  br label %122

99:                                               ; preds = %78
  %100 = load i8, ptr %13, align 1
  %101 = zext i8 %100 to i32
  %102 = icmp eq i32 %101, 31
  br i1 %102, label %103, label %111

103:                                              ; preds = %99
  %104 = load ptr, ptr %6, align 8
  %105 = load i32, ptr %12, align 4
  %106 = add i32 %105, 1
  %107 = load ptr, ptr %8, align 8
  %108 = call i32 @tvb_get_uintvar(ptr noundef %104, i32 noundef %106, ptr noundef %16, ptr noundef %107, ptr noundef @ei_wsp_oversized_uintvar)
  store i32 %108, ptr %15, align 4
  %109 = load i32, ptr %16, align 4
  %110 = add i32 %109, 1
  store i32 %110, ptr %16, align 4
  br label %116

111:                                              ; preds = %99
  %112 = load ptr, ptr %6, align 8
  %113 = load i32, ptr %14, align 4
  %114 = call zeroext i8 @tvb_get_uint8(ptr noundef %112, i32 noundef %113)
  %115 = zext i8 %114 to i32
  store i32 %115, ptr %15, align 4
  store i32 1, ptr %16, align 4
  br label %116

116:                                              ; preds = %111, %103
  %117 = load i32, ptr %16, align 4
  %118 = load i32, ptr %15, align 4
  %119 = add i32 %117, %118
  %120 = load i32, ptr %14, align 4
  %121 = add i32 %120, %119
  store i32 %121, ptr %14, align 4
  br label %122

122:                                              ; preds = %116, %82
  br label %123

123:                                              ; preds = %122, %73
  %124 = load i8, ptr %9, align 1, !range !6, !noundef !7
  %125 = trunc i8 %124 to i1
  br i1 %125, label %130, label %126

126:                                              ; preds = %123
  %127 = load ptr, ptr %8, align 8
  %128 = load ptr, ptr %11, align 8
  %129 = call ptr @expert_add_info(ptr noundef %127, ptr noundef %128, ptr noundef @ei_wsp_header_invalid_value)
  br label %130

130:                                              ; preds = %126, %123
  %131 = load i32, ptr %14, align 4
  call void @llvm.lifetime.end.p0(i64 8, ptr %17) #8
  call void @llvm.lifetime.end.p0(i64 4, ptr %16) #8
  call void @llvm.lifetime.end.p0(i64 4, ptr %15) #8
  call void @llvm.lifetime.end.p0(i64 4, ptr %14) #8
  call void @llvm.lifetime.end.p0(i64 1, ptr %13) #8
  call void @llvm.lifetime.end.p0(i64 4, ptr %12) #8
  call void @llvm.lifetime.end.p0(i64 8, ptr %11) #8
  call void @llvm.lifetime.end.p0(i64 8, ptr %10) #8
  call void @llvm.lifetime.end.p0(i64 1, ptr %9) #8
  ret i32 %131
}