; Function Attrs: null_pointer_is_valid sspstrong uwtable
define internal i32 @wkh_content_encoding(ptr noundef %0, ptr noundef %1, i32 noundef %2, ptr noundef %3) #1 {
  %5 = alloca ptr, align 8
  %6 = alloca i32, align 4
  %7 = alloca i32, align 4
  call void @llvm.lifetime.start.p0(i64 8, ptr nonnull %5) #5
  %8 = add i32 %2, 1
  %9 = tail call zeroext i8 @tvb_get_uint8(ptr noundef %1, i32 noundef %8)
  call void @llvm.lifetime.start.p0(i64 4, ptr nonnull %6) #5
  call void @llvm.lifetime.start.p0(i64 4, ptr nonnull %7) #5
  %10 = load i32, ptr @ett_content_encoding, align 4
  %11 = call ptr @proto_tree_add_subtree(ptr noundef %0, ptr noundef %1, i32 noundef %2, i32 noundef 1, i32 noundef %10, ptr noundef nonnull %5, ptr noundef nonnull @.str.1074)
  %12 = load i32, ptr @hf_hdr_name_value, align 4
  %13 = call ptr @proto_tree_add_item(ptr noundef %11, i32 noundef %12, ptr noundef %1, i32 noundef %2, i32 noundef 1, i32 noundef 0)
  %.not = icmp sgt i8 %9, -1
  br i1 %.not, label %25, label %14

14:                                               ; preds = %4
  %15 = add i32 %2, 2
  switch i8 %9, label %48 [
    i8 -128, label %16
    i8 -127, label %19
    i8 -126, label %22
  ]

16:                                               ; preds = %14
  %17 = load i32, ptr @hf_hdr_content_encoding, align 4
  %18 = call ptr @proto_tree_add_string(ptr noundef %0, i32 noundef %17, ptr noundef %1, i32 noundef %2, i32 noundef 2, ptr noundef nonnull @.str.876)
  br label %.thread

19:                                               ; preds = %14
  %20 = load i32, ptr @hf_hdr_content_encoding, align 4
  %21 = call ptr @proto_tree_add_string(ptr noundef %0, i32 noundef %20, ptr noundef %1, i32 noundef %2, i32 noundef 2, ptr noundef nonnull @.str.877)
  br label %.thread

22:                                               ; preds = %14
  %23 = load i32, ptr @hf_hdr_content_encoding, align 4
  %24 = call ptr @proto_tree_add_string(ptr noundef %0, i32 noundef %23, ptr noundef %1, i32 noundef %2, i32 noundef 2, ptr noundef nonnull @.str.878)
  br label %.thread

25:                                               ; preds = %4
  %26 = add nsw i8 %9, -32
  %or.cond = icmp ult i8 %26, -31
  br i1 %or.cond, label %27, label %35

27:                                               ; preds = %25
  %28 = call ptr @wmem_packet_scope()
  %29 = call ptr @tvb_get_stringz_enc(ptr noundef %28, ptr noundef %1, i32 noundef %8, ptr noundef nonnull %6, i32 noundef 0)
  %30 = load i32, ptr %6, align 4
  %31 = add i32 %30, %8
  %32 = load i32, ptr @hf_hdr_content_encoding, align 4
  %33 = sub i32 %31, %2
  %34 = call ptr @proto_tree_add_string(ptr noundef %0, i32 noundef %32, ptr noundef %1, i32 noundef %2, i32 noundef %33, ptr noundef %29)
  br label %.thread

35:                                               ; preds = %25
  %36 = icmp eq i8 %9, 31
  br i1 %36, label %37, label %42

37:                                               ; preds = %35
  %38 = add i32 %2, 2
  %39 = call i32 @tvb_get_uintvar(ptr noundef %1, i32 noundef %38, ptr noundef nonnull %7, ptr noundef %3, ptr noundef nonnull @ei_wsp_oversized_uintvar)
  %40 = load i32, ptr %7, align 4
  %41 = add i32 %40, 1
  br label %45

42:                                               ; preds = %35
  %43 = call zeroext i8 @tvb_get_uint8(ptr noundef %1, i32 noundef %8)
  %44 = zext i8 %43 to i32
  br label %45

45:                                               ; preds = %42, %37
  %.sink = phi i32 [ %39, %37 ], [ %44, %42 ]
  %storemerge = phi i32 [ %41, %37 ], [ 1, %42 ]
  store i32 %storemerge, ptr %7, align 4
  %46 = add i32 %storemerge, %8
  %47 = add i32 %46, %.sink
  br label %48

48:                                               ; preds = %14, %45
  %.0 = phi i32 [ %15, %14 ], [ %47, %45 ]
  %49 = load ptr, ptr %5, align 8
  %50 = call ptr @expert_add_info(ptr noundef %3, ptr noundef %49, ptr noundef nonnull @ei_wsp_header_invalid_value)
  br label %.thread

.thread:                                          ; preds = %27, %16, %19, %22, %48
  %.056 = phi i32 [ %.0, %48 ], [ %31, %27 ], [ %15, %16 ], [ %15, %19 ], [ %15, %22 ]
  call void @llvm.lifetime.end.p0(i64 4, ptr nonnull %7) #5
  call void @llvm.lifetime.end.p0(i64 4, ptr nonnull %6) #5
  call void @llvm.lifetime.end.p0(i64 8, ptr nonnull %5) #5
  ret i32 %.056
}